; Function Attrs: mustprogress nounwind uwtable
define hidden noundef ptr @_ZN10MemBarNode5matchEPK8ProjNodePK7Matcher(ptr noundef nonnull align 8 dereferenceable(68) %0, ptr nocapture noundef readonly %1, ptr nocapture readnone %2) unnamed_addr #1 align 2 {
  %4 = getelementptr inbounds i8, ptr %1, i64 52
  %5 = load i32, ptr %4, align 4
  switch i32 %5, label %44 [
    i32 0, label %6
    i32 2, label %6
  ]

6:                                                ; preds = %3, %3
  %7 = tail call align 8 ptr @llvm.threadlocal.address.p0(ptr align 8 @_ZN6Thread12_thr_currentE)
  %8 = load ptr, ptr %7, align 8
  %9 = getelementptr inbounds i8, ptr %8, i64 1808
  %10 = load ptr, ptr %9, align 8
  %11 = getelementptr inbounds i8, ptr %10, i64 128
  %12 = load ptr, ptr %11, align 8
  %13 = getelementptr inbounds i8, ptr %12, i64 728
  %14 = load ptr, ptr %13, align 8
  %15 = getelementptr inbounds i8, ptr %14, i64 40
  %16 = load ptr, ptr %15, align 8
  %17 = getelementptr inbounds i8, ptr %14, i64 32
  %18 = load ptr, ptr %17, align 8
  %19 = ptrtoint ptr %16 to i64
  %20 = ptrtoint ptr %18 to i64
  %21 = sub i64 %19, %20
  %.not.i.i.i = icmp ult i64 %21, 168
  br i1 %.not.i.i.i, label %24, label %22

22:                                               ; preds = %6
  %23 = getelementptr inbounds i8, ptr %18, i64 168
  store ptr %23, ptr %17, align 8
  br label %_ZN4NodenwEm.exit

24:                                               ; preds = %6
  %25 = tail call noundef ptr @_ZN5Arena4growEmN17AllocFailStrategy13AllocFailEnumE(ptr noundef nonnull align 8 dereferenceable(48) %14, i64 noundef 168, i32 noundef 0) #13
  br label %_ZN4NodenwEm.exit

_ZN4NodenwEm.exit:                                ; preds = %22, %24
  %.0.i.i.i = phi ptr [ %18, %22 ], [ %25, %24 ]
  %26 = icmp eq ptr %.0.i.i.i, null
  br i1 %26, label %43, label %27

27:                                               ; preds = %_ZN4NodenwEm.exit
  %28 = load i32, ptr %4, align 4
  tail call void @_ZN4NodeC2EPS_(ptr noundef nonnull align 8 dereferenceable(52) %.0.i.i.i, ptr noundef nonnull %0) #13
  store ptr getelementptr inbounds inrange(-16, 192) (i8, ptr @_ZTV8ProjNode, i64 16), ptr %.0.i.i.i, align 8
  %29 = getelementptr inbounds i8, ptr %.0.i.i.i, i64 52
  store i32 %28, ptr %29, align 4
  %30 = getelementptr inbounds i8, ptr %.0.i.i.i, i64 56
  store i8 0, ptr %30, align 8
  %31 = getelementptr inbounds i8, ptr %.0.i.i.i, i64 44
  store i32 8, ptr %31, align 4
  %.not.i.i = icmp eq i32 %28, 2
  br i1 %.not.i.i, label %32, label %37

32:                                               ; preds = %27
  %33 = getelementptr inbounds i8, ptr %0, i64 44
  %34 = load i32, ptr %33, align 4
  %35 = and i32 %34, 15
  %36 = icmp eq i32 %35, 9
  br i1 %36, label %37, label %_ZN12MachProjNodeC2EP4NodejRK7RegMaskj.exit

37:                                               ; preds = %32, %27
  %38 = getelementptr inbounds i8, ptr %.0.i.i.i, i64 48
  %39 = load i32, ptr %38, align 8
  %40 = or i32 %39, 64
  store i32 %40, ptr %38, align 8
  br label %_ZN12MachProjNodeC2EP4NodejRK7RegMaskj.exit

_ZN12MachProjNodeC2EP4NodejRK7RegMaskj.exit:      ; preds = %32, %37
  store ptr getelementptr inbounds inrange(-16, 192) (i8, ptr @_ZTV12MachProjNode, i64 16), ptr %.0.i.i.i, align 8
  %41 = getelementptr inbounds i8, ptr %.0.i.i.i, i64 64
  tail call void @llvm.memcpy.p0.p0.i64(ptr noundef nonnull align 8 dereferenceable(96) %41, ptr noundef nonnull align 8 dereferenceable(96) @_ZN7RegMask5EmptyE, i64 96, i1 false)
  %42 = getelementptr inbounds i8, ptr %.0.i.i.i, i64 160
  store i32 0, ptr %42, align 8
  store i32 520, ptr %31, align 4
  br label %43

43:                                               ; preds = %_ZN12MachProjNodeC2EP4NodejRK7RegMaskj.exit, %_ZN4NodenwEm.exit
  ret ptr %.0.i.i.i

44:                                               ; preds = %3
  %45 = load ptr, ptr @g_assert_poison, align 8
  store i8 88, ptr %45, align 1
  tail call void @_Z28report_should_not_reach_herePKci(ptr noundef nonnull @.str.4, i32 noundef 4218) #14
  unreachable
}